(dp0
S'dissapearance of haruhi'
p1
S'The_Disappearance_of_Haruhi_Suzumiya'
p2
sS''
p3
S'Anime'
p4
sS'hajime no ippo'
p5
S'Fighting_Spirit_(manga)'
p6
sS'scryed'
p7
S'S-CRY-ed'
p8
sS'true tears'
p9
S'True_Tears_(anime)'
p10
sS'gosick'
p11
S'Gosick'
p12
sS'gungrave'
p13
S'Gungrave_(anime)'
p14
sS'ghost in the shell stand alone complex: 2nd gig'
p15
S'Ghost_in_the_Shell:_S.A.C._2nd_GIG'
p16
sS'baccano!'
p17
S'Baccano!'
p18
sS'shinryaku! ika musume'
p19
S'Squid_Girl'
p20
sS'yuru yuri'
p21
S'YuruYuri'
p22
sS'iria - zeiram the animation'
p23
S'Iria:_Zeiram_the_Animation'
p24
sS'slayers'
p25
S'Slayers'
p26
sS'rinne no lagrange'
p27
S'Lagrange:_The_Flower_of_Rin-ne'
p28
sS'08th ms team'
p29
S'Mobile_Suit_Gundam:_The_08th_MS_Team'
p30
sS'ningen shikkaku (aoi bungaku)'
p31
S'No_Longer_Human'
p32
sS'nge'
p33
S'Neon_Genesis_Evangelion_(anime)'
p34
sS'utena'
p35
S'Revolutionary_Girl_Utena'
p36
sS'perfect blue'
p37
S'Perfect_Blue'
p38
sS'ouran'
p39
S'Ouran_High_School_Host_Club'
p40
sS'neon genesis evangleion'
p41
S'Neon_Genesis_Evangelion_(anime)'
p42
sS'katanagatari'
p43
S'Katanagatari'
p44
sS'ghost hound'
p45
S'Ghost_Hound'
p46
sS'eureka seven'
p47
S'Eureka_Seven'
p48
sS'aria'
p49
S'Aria_(manga)'
p50
sS'the melencholy of haruhi suzumiya'
p51
S'Haruhi_Suzumiya'
p52
sS'planetes'
p53
S'Planetes'
p54
sS'gto'
p55
S'Great_Teacher_Onizuka'
p56
sS'phantom: requiem for the phantom'
p57
S'Phantom_of_Inferno'
p58
sS'cowboy bebop'
p59
S'Cowboy_Bebop'
p60
sS'seto no hanayome'
p61
S'My_Bride_is_a_Mermaid'
p62
sS'higashi no eden'
p63
S'Eden_of_the_East'
p64
sS'chihayafuru'
p65
S'Chihayafuru'
p66
sS'5 centimeters per second'
p67
S'5_Centimeters_Per_Second'
p68
sS'd.n.angel'
p69
S'D.N.Angel'
p70
sS'legend of the galactic heroes'
p71
S'Legend_of_the_Galactic_Heroes'
p72
sS'haruhi suzumiya no yuutsu'
p73
S'Haruhi_Suzumiya'
p74
sS'kannon 2006'
p75
S'Kanon'
p76
sS'mushi-shit'
p77
S'Mushishi'
p78
sS'[c]'
p79
S'C_(anime)'
p80
sS'ano hana'
p81
S'Anohana:_The_Flower_We_Saw_That_Day'
p82
sS'kaiba'
p83
S'Kaiba'
p84
sS'lain'
p85
S'Serial_Experiments_Lain'
p86
sS'lucky star'
p87
S'Lucky_Star_(manga)'
p88
sS'zegapain'
p89
S'Zegapain'
p90
sS'ttgl-lagaan hen'
p91
S'Gurren_Lagann'
p92
sS'nhk'
p93
S'Welcome_to_the_N.H.K.'
p94
sS'rozen maiden'
p95
S'Rozen_Maiden'
p96
sS'usagi drop'
p97
S'Bunny_Drop'
p98
sS'chobits'
p99
S'Chobits'
p100
sS'steins gate'
p101
S'Steins'
p102
sS'tengen toppa gurren lagann'
p103
S'Gurren_Lagann'
p104
sS'sword of the stranger'
p105
S'Sword_of_the_Stranger'
p106
sS'samurai champloo'
p107
S'Samurai_Champloo'
p108
sS'durarara!!'
p109
S'Durarara!!'
p110
sS'stiens;gate'
p111
S'Steins'
p112
sS'fullmetal panic fumoffu'
p113
S'Full_Metal_Panic'
p114
sS'eva'
p115
S'Neon_Genesis_Evangelion_(anime)'
p116
sS'k-on'
p117
S'K-On!'
p118
sS'fuujin monogatari'
p119
S'Windy_Tales'
p120
sS'the book of bantorra'
p121
S'Tatakau_Shisho'
p122
sS'hikaru no go'
p123
S'Hikaru_no_Go'
p124
sS'ghost in the shell: s.a.c.'
p125
S'Ghost_in_the_Shell:_Stand_Alone_Complex'
p126
sS'minami-ke'
p127
S'Minami-ke'
p128
sS'shakugan no shana'
p129
S'Shakugan_no_Shana'
p130
sS'haruhi'
p131
S'Haruhi_Suzumiya'
p132
sS'slam dunk'
p133
S'Slam_Dunk_(manga)'
p134
sS'aria the origination'
p135
S'Aria_(manga)'
p136
sS'gankutsuou'
p137
S'Gankutsuou:_The_Count_of_Monte_Cristo'
p138
sS'kaiji'
p139
S'Kaiji_(manga)'
p140
sS'ichigo mashimaro'
p141
S'Strawberry_Marshmallow'
p142
sS'hidamari sketch x365'
p143
S'Hidamari_Sketch'
p144
sS'soredemo machi wa mawatteiru'
p145
S'And_Yet_The_Town_Moves'
p146
sS'strike witches'
p147
S'Strike_Witches'
p148
sS'koi kaze'
p149
S'Koi_Kaze'
p150
sS'detroit metal city'
p151
S'Detroit_Metal_City'
p152
sS'akagi'
p153
S'Akagi_(manga)'
p154
sS'suzumiya haruhi'
p155
S'Haruhi_Suzumiya'
p156
sS'vision of escaflowne'
p157
S'The_Vision_of_Escaflowne'
p158
sS'mawaru penguindrum'
p159
S'Mawaru-Penguindrum'
p160
sS'gunbuster'
p161
S'Gunbuster'
p162
sS'afro samurai'
p163
S'Afro_Samurai'
p164
sS'natsume yuujinchou'
p165
S"Natsume's_Book_of_Friends"
p166
sS'hourou musuko'
p167
S'Wandering_Son'
p168
sS'hidamari sketch'
p169
S'Hidamari_Sketch'
p170
sS'mushishi'
p171
S'Mushishi'
p172
sS'szs'
p173
S'Sayonara,_Zetsubou-Sensei'
p174
sS'sayonara zetsubou sensei'
p175
S'Sayonara,_Zetsubou-Sensei'
p176
sS'suzumiya haruhi no yuuutsu'
p177
S'Haruhi_Suzumiya'
p178
sS'code geass'
p179
S'Code_Geass'
p180
sS'zetsubou sensei'
p181
S'Sayonara,_Zetsubou-Sensei'
p182
sS'logh'
p183
S'Legend_of_the_Galactic_Heroes'
p184
sS'cromartie'
p185
S'Cromartie_High_School'
p186
sS'sakamichi no apollon'
p187
S'Kids_on_the_Slope'
p188
sS'gits sac'
p189
S'Ghost_in_the_Shell'
p190
sS'k-on!!'
p191
S'K-On!'
p192
sS'lupin iii'
p193
S'Lupin_III'
p194
sS'angel beats'
p195
S'Angel_Beats!'
p196
sS'mononoke'
p197
S'Mononoke'
p198
sS'fate zero'
p199
S'Fate/Zero'
p200
sS'kara no kyoukai'
p201
S'Kara_no_Ky'
p202
sS'spirited away'
p203
S'Spirited_Away'
p204
sS'ergo proxy'
p205
S'Ergo_Proxy'
p206
sS'baka to test'
p207
S'Baka_and_Test'
p208
sS'one piece'
p209
S'One_Piece'
p210
sS'trigun'
p211
S'Trigun'
p212
sS'black lagoon'
p213
S'Black_Lagoon'
p214
sS'hellsing ultimate'
p215
S'Hellsing'
p216
sS'rec'
p217
S'Rec_(manga)'
p218
sS'revolutionary girl utena'
p219
S'Revolutionary_Girl_Utena'
p220
sS'tatami galaxy'
p221
S'The_Tatami_Galaxy'
p222
sS'berserk'
p223
S'Berserk_(manga)'
p224
sS'natsume yuujinchou shi'
p225
S"Natsume's_Book_of_Friends"
p226
sS'ttgl'
p227
S'Gurren_Lagann'
p228
sS'flcl'
p229
S'FLCL'
p230
sS'monster'
p231
S'Monster_(manga)'
p232
sS'eden of the east'
p233
S'Eden_of_the_East'
p234
sS'birdy the mighty decode 2'
p235
S'Birdy_the_Mighty'
p236
sS'ookiku furikabutte'
p237
S'Big_Windup!'
p238
sS'maria-sama ga miteru'
p239
S'Maria-sama_ga_Miteru'
p240
sS'beck'
p241
S'Beck_(manga)'
p242
sS'kimi to boku'
p243
S'Kimi_to_Boku_(manga)'
p244
sS'eve no jikan'
p245
S'Time_of_Eve'
p246
sS'persona 4'
p247
S'Shin_Megami_Tensei:_Persona_4'
p248
sS'ef - a tale of memories'
p249
S'Ef:_A_Fairy_Tale_of_the_Two.'
p250
sS'ueki no housoku'
p251
S'The_Law_of_Ueki'
p252
sS'sora no manimani'
p253
S'Sora_no_Manimani'
p254
sS"wolf's rain"
p255
S"Wolf's_Rain"
p256
sS'genshiken'
p257
S'Genshiken'
p258
sS'xxxholic'
p259
S'XxxHolic'
p260
sS'fate/zero'
p261
S'Fate/Zero'
p262
sS'records of the lodoss war'
p263
S'Record_of_Lodoss_War'
p264
sS'fma: brotherhood'
p265
S'Fullmetal_Alchemist'
p266
sS'gurren lagann'
p267
S'Gurren_Lagann'
p268
sS'card captor sakura'
p269
S'Cardcaptor_Sakura'
p270
sS'rose of versailles'
p271
S'The_Rose_of_Versailles'
p272
sS'busou renkin'
p273
S'Buso_Renkin'
p274
sS'the melancholy of haruhi suzumiya'
p275
S'Haruhi_Suzumiya'
p276
sS'kaleido star'
p277
S'Kaleido_Star'
p278
sS'nadia the secret of blue water'
p279
S'Nadia:_The_Secret_of_Blue_Water'
p280
sS'school days'
p281
S'School_Days_(visual_novel)'
p282
sS'outlaw star'
p283
S'Outlaw_Star'
p284
sS'toradora'
p285
S'Toradora!'
p286
sS'gurren lagan'
p287
S'Gurren_Lagann'
p288
sS"nanoha a's"
p289
S"Magical_Girl_Lyrical_Nanoha_A's"
p290
sS'golden boy'
p291
S'Golden_Boy_(manga)'
p292
sS'evangelion'
p293
S'Neon_Genesis_Evangelion_(anime)'
p294
sS'detroit metal city (manga)'
p295
S'Detroit_Metal_City'
p296
sS'ghost hunt'
p297
S'Ghost_Hunt'
p298
sS'neon genesis evangelion'
p299
S'Neon_Genesis_Evangelion_(anime)'
p300
sS'texhnolyze'
p301
S'Texhnolyze'
p302
sS'suzumiya haruhi no yuutsu'
p303
S'Haruhi_Suzumiya'
p304
sS'the melencholy haruhi suzumiya'
p305
S'Haruhi_Suzumiya'
p306
sS'paranoia agent'
p307
S'Paranoia_Agent'
p308
sS'saikano'
p309
S'Saikano'
p310
sS'dennou coil'
p311
S'Denn'
p312
sS'noein'
p313
S'Noein'
p314
sS'canaan'
p315
S'Canaan_(anime)'
p316
sS"kino's journey"
p317
S"Kino's_Journey"
p318
sS'seikai no senki'
p319
S'Banner_of_the_Stars'
p320
sS'bokurano'
p321
S'Bokurano:_Ours'
p322
sS'boku no pico'
p323
S'Boku_no_Pico'
p324
sS'another'
p325
S'Another_(novel)'
p326
sS'gits'
p327
S'Ghost_in_the_Shell'
p328
sS'kyoukai senjou no horizon'
p329
S'Horizon_on_the_Middle_of_Nowhere'
p330
sS'turn a gundam'
p331
S'Turn_A_Gundam'
p332
sS'yyh'
p333
S'YuYu_Hakusho'
p334
sS'the melacholy and disappearance of haruhi suzumiya'
p335
S'Haruhi_Suzumiya'
p336
sS'saki'
p337
S'Saki_(manga)'
p338
sS'working'
p339
S'Working!!'
p340
sS'spice & wolf'
p341
S'Spice'
p342
sS'k-on!'
p343
S'K-On!'
p344
sS'nisemono'
p345
S'Ky'
p346
sS'shiki'
p347
S'Shiki_(novel_series)'
p348
sS'black rock shooter'
p349
S'Black_Rock_Shooter'
p350
sS'hayate no gotoku!'
p351
S'Hayate_the_Combat_Butler'
p352
sS'nichijou'
p353
S'Nichijou'
p354
sS'nana'
p355
S'Nana_(manga)'
p356
sS'dna^2'
p357
S'DNA'
p358
sS'neon genesis evangelion: the end of evangelion'
p359
S'The_End_of_Evangelion'
p360
sS'sora no otoshimono'
p361
S"Heaven's_Lost_Property"
p362
sS'senkou no night raid'
p363
S'Night_Raid_1931'
p364
sS'cardcaptor sakura'
p365
S'Cardcaptor_Sakura'
p366
sS'danshi koukousei'
p367
S'Daily_Lives_of_High_School_Boys'
p368
sS'stratos 4'
p369
S'Stratos_4'
p370
sS'paprika'
p371
S'Paprika_(2006_film)'
p372
sS'honey and clover ii'
p373
S'Honey_and_Clover'
p374
sS'sora no woto'
p375
S'Sound_of_the_Sky'
p376
sS'haruhi melencholy'
p377
S'Haruhi_Suzumiya'
p378
sS'legend of the legendary heroes'
p379
S'The_Legend_of_the_Legendary_Heroes'
p380
sS'seitokai yakuindomo'
p381
S'Seitokai_Yakuindomo'
p382
sS'myself;yourself'
p383
S'Myself_'
p384
sS'arakawa under the bridge'
p385
S'Arakawa_Under_the_Bridge'
p386
sS'darker than black'
p387
S'Darker_than_Black'
p388
sS'serial experiments lain'
p389
S'Serial_Experiments_Lain'
p390
sS'yojouhan shinwa taikei'
p391
S'The_Tatami_Galaxy'
p392
sS'cross game'
p393
S'Cross_Game'
p394
sS'clannad'
p395
S'Clannad_(visual_novel)'
p396
sS'nodame cantabile'
p397
S'Nodame_Cantabile'
p398
sS'spice and wolf'
p399
S'Spice_and_Wolf'
p400
sS'rideback'
p401
S'Rideback'
p402
sS"jojo's bizarre adventure (manga)"
p403
S"JoJo's_Bizarre_Adventure"
p404
sS'ef: a tale of memories'
p405
S'Ef:_A_Fairy_Tale_of_the_Two.'
p406
sS'honey and clover'
p407
S'Honey_and_Clover'
p408
sS'rainbow: nisha rokubou no shichinin'
p409
S'Rainbow:_Nisha_Rokub'
p410
sS'bartender'
p411
S'Bartender_(manga)'
p412
sS'wasurenagumo'
p413
S'Wasurenagumo'
p414
sS'sdf macross'
p415
S'Macross'
p416
sS'soremachi'
p417
S'And_Yet_The_Town_Moves'
p418
sS'korean zombie'
p419
S'Kore_wa_Zombie_Desu_ka'
p420
sS'baccano'
p421
S'Baccano!'
p422
sS'higurashi no naku koro ni'
p423
S'Higurashi_When_They_Cry'
p424
sS'legend of galactic heroes'
p425
S'Legend_of_the_Galactic_Heroes'
p426
sS'end of evangelion'
p427
S'The_End_of_Evangelion'
p428
sS'twgok'
p429
S'The_World_God_Only_Knows'
p430
sS'ghost in the shell: stand alone complex 2nd gig'
p431
S'Ghost_in_the_Shell:_S.A.C._2nd_GIG'
p432
sS'sengoku basara'
p433
S'Sengoku_Basara:_Samurai_Kings'
p434
sS'hellsing (ultimate)'
p435
S'Hellsing'
p436
sS'azumanga daioh'
p437
S'Azumanga_Daioh'
p438
sS'aoi bungaku'
p439
S'Aoi_Bungaku'
p440
sS'trava'
p441
S'Trava:_Fist_Planet'
p442
sS'panty and stocking'
p443
S'Panty_'
p444
sS'the tatami galaxy'
p445
S'The_Tatami_Galaxy'
p446
sS'giant robo'
p447
S'Giant_Robo_(OVA)'
p448
sS'hellsing'
p449
S'Hellsing_(TV_series)'
p450
sS'full metal panic!'
p451
S'Full_Metal_Panic!'
p452
sS'clannad after story'
p453
S'List_of_Clannad_episodes'
p454
sS'macross'
p455
S'Macross'
p456
sS'ghost in the shell stand alone complex'
p457
S'Ghost_in_the_Shell:_Stand_Alone_Complex'
p458
sS'berserk (tv series)'
p459
S'Berserk_(manga)'
p460
sS'kuragehime'
p461
S'Princess_Jellyfish'
p462
sS'great teacher onizuka'
p463
S'Great_Teacher_Onizuka'
p464
sS'steins;gate'
p465
S'Steins'
p466
sS'kemonozume'
p467
S'Kemonozume'
p468
sS'lotgh'
p469
S'Legend_of_the_Galactic_Heroes'
p470
sS'redline'
p471
S'Redline_(2009_film)'
p472
sS'king of braves gaogaigar'
p473
S'The_King_of_Braves_GaoGaiGar'
p474
sS'haibane renmei'
p475
S'Haibane_Renmei'
p476
sS'moribito'
p477
S'Moribito:_Guardian_of_the_Spirit'
p478
sS'oofuri'
p479
S'Big_Windup!'
p480
sS'hanasaku iroha'
p481
S'Hanasaku_Iroha'
p482
sS'panty & stocking with garterbelt'
p483
S'Panties'
p484
sS'suzumiya haruhi no shoushitsu'
p485
S'Haruhi_Suzumiya'
p486
sS'top 9'
p487
S'Himitsu_'
p488
sS'hidamari'
p489
S'Hidamari_Sketch'
p490
sS'birdy the mighty'
p491
S'Birdy_the_Mighty'
p492
sS'banner of the stars'
p493
S'Banner_of_the_Stars'
p494
sS'im@s'
p495
S'The_Idolmaster'
p496
sS'bnp'
p497
S'Boku_no_Pico'
p498
sS'toaru majutsu no index'
p499
S'Toaru_Majutsu_no_Index'
p500
sS'top wo nerae'
p501
S'Gunbuster'
p502
sS'violence jack'
p503
S'Violence_Jack'
p504
sS'simoun'
p505
S'Simoun_(anime)'
p506
sS'durarara'
p507
S'Durarara!!'
p508
sS'nekojiru-sou'
p509
S'Cat_Soup'
p510
sS'S;G'
p511
S'Steins'
p512
sS'wings of honnemaise'
p513
S'Royal_Space_Force:_The_Wings_of_Honn'
p514
sS'gintama'
p515
S'Gin_Tama'
p516
sS'fullmetal alchemist brotherhood'
p517
S'Fullmetal_Alchemist'
p518
sS'kino no tabi'
p519
S"Kino's_Journey"
p520
sS'najica'
p521
S'Najica_Blitz_Tactics'
p522
sS'mai otome'
p523
S'My-Otome'
p524
sS'card sakura'
p525
S'Cardcaptor_Sakura'
p526
sS'welcome to the nhk'
p527
S'Welcome_to_the_N.H.K.'
p528
sS'toradora!'
p529
S'Toradora!'
p530
sS'madoka'
p531
S'Puella_Magi_Madoka_Magica'
p532
sS'kobato'
p533
S'Kobato.'
p534
sS'desert punk'
p535
S'Desert_Punk'
p536
sS'tamayura hitose'
p537
S'Tamayura'
p538
sS'break blade'
p539
S'Broken_Blade'
p540
sS'hotarubi no mori e'
p541
S'Hotarubi_no_Mori_e'
p542
sS'kodomo no jikan'
p543
S'Kodomo_no_Jikan'
p544
sS'puella magi madoka magica'
p545
S'Puella_Magi_Madoka_Magica'
p546
sS'ace wo nerae'
p547
S'Aim_for_the_Ace!'
p548
sS'denpa onna'
p549
S'Denpa_Onna_to_Seishun_Otoko'
p550
sS'disappearance of haruhi suzumiya'
p551
S'The_Disappearance_of_Haruhi_Suzumiya'
p552
sS'kino no tabi: the beautiful world'
p553
S"Kino's_Journey"
p554
sS'princess tutu'
p555
S'Princess_Tutu'
p556
sS'sekirei'
p557
S'Sekirei'
p558
sS'yu yu hakusho'
p559
S'YuYu_Hakusho'
p560
sS'Wasurenagumo'
p561
g561
sS'mahou shoujo lyrical nanoha'
p562
S'Magical_Girl_Lyrical_Nanoha'
p563
sS'mahou shoujo madoka magica'
p564
S'Puella_Magi_Madoka_Magica'
p565
sS'ranma 1/2'
p566
S'Ranma_'
p567
sS'hunter x hunter'
p568
S'Hunter_'
p569
sS'death note'
p570
S'Death_Note'
p571
sS'legend of the legenday heros'
p572
S'The_Legend_of_the_Legendary_Heroes'
p573
sS'sayonara zetsubo sensei'
p574
S'Sayonara,_Zetsubou-Sensei'
p575
sS'casshern sins'
p576
S'Casshern_Sins'
p577
sS'school rumble'
p578
S'School_Rumble'
p579
sS'the world god only knows'
p580
S'The_World_God_Only_Knows'
p581
sS'gits: sac 2nd gig'
p582
S'Ghost_in_the_Shell:_S.A.C._2nd_GIG'
p583
sS'kyousougiga'
p584
S'Kyousogiga'
p585
sS'aika'
p586
S'Agent_Aika'
p587
sS'steins'
p588
S'Steins'
p589
sS'bakemonogatari'
p590
S'Bakemonogatari'
p591
s.